; Function Attrs: nounwind uwtable
define range(i32 -1, 1) i32 @H5FO_mark(ptr noundef readonly captures(none) %0, i64 noundef %1, i1 noundef zeroext %2) local_unnamed_addr #0 {
  %4 = alloca i64, align 8
  store i64 %1, ptr %4, align 8, !tbaa !36
  %5 = getelementptr inbounds nuw i8, ptr %0, i64 16
  %6 = load ptr, ptr %5, align 8, !tbaa !3
  %7 = getelementptr inbounds nuw i8, ptr %6, i64 1464
  %8 = load ptr, ptr %7, align 8, !tbaa !15
  %9 = call ptr @H5SL_search(ptr noundef %8, ptr noundef nonnull %4) #2
  %.not = icmp eq ptr %9, null
  br i1 %.not, label %13, label %10

10:                                               ; preds = %3
  %11 = zext i1 %2 to i8
  %12 = getelementptr inbounds nuw i8, ptr %9, i64 16
  store i8 %11, ptr %12, align 8, !tbaa !40
  br label %13

13:                                               ; preds = %3, %10
  %.0 = phi i32 [ 0, %10 ], [ -1, %3 ]
  ret i32 %.0
}